; Function Attrs: mustprogress nofree norecurse nosync nounwind willreturn memory(argmem: write) uwtable
define hidden void @nghttp2_frame_window_update_init(ptr noundef writeonly captures(none) initializes((0, 15), (16, 21)) %0, i8 noundef zeroext %1, i32 noundef %2, i32 noundef %3) local_unnamed_addr #2 {
  store i64 4, ptr %0, align 8, !tbaa !3
  %5 = getelementptr inbounds nuw i8, ptr %0, i64 12
  store i8 8, ptr %5, align 4, !tbaa !9
  %6 = getelementptr inbounds nuw i8, ptr %0, i64 13
  store i8 %1, ptr %6, align 1, !tbaa !11
  %7 = getelementptr inbounds nuw i8, ptr %0, i64 8
  store i32 %2, ptr %7, align 8, !tbaa !12
  %8 = getelementptr inbounds nuw i8, ptr %0, i64 14
  store i8 0, ptr %8, align 2, !tbaa !13
  %9 = getelementptr inbounds nuw i8, ptr %0, i64 16
  store i32 %3, ptr %9, align 8, !tbaa !41
  %10 = getelementptr inbounds nuw i8, ptr %0, i64 20
  store i8 0, ptr %10, align 4, !tbaa !43
  ret void
}